target datalayout = "e-m:e-p270:32:32-p271:32:32-p272:64:64-i64:64-i128:128-f80:128-n8:16:32:64-S128"
target triple = "x86_64-pc-linux-gnu"

%struct.HASHCTL = type { i64, i64, i64, i64, i64, i64, ptr, ptr, ptr, ptr, ptr, ptr }

@IsUnderPostmaster = external global i8, align 1
@MyBackendType = external global i32, align 4
@TopMemoryContext = external global ptr, align 8
@.str = private unnamed_addr constant [20 x i8] c"Pending ops context\00", align 1
@pendingOpsCxt = internal global ptr null, align 8
@.str.1 = private unnamed_addr constant [18 x i8] c"Pending Ops Table\00", align 1
@pendingOps = internal global ptr null, align 8
@pendingUnlinks = internal global ptr null, align 8

; Function Attrs: nounwind uwtable
define dso_local void @InitSync() #0 {
  %1 = alloca %struct.HASHCTL, align 8
  %2 = alloca i32, align 4
  %3 = load i8, ptr @IsUnderPostmaster, align 1, !range !4, !noundef !5
  %4 = trunc i8 %3 to i1
  br i1 %4, label %5, label %8

5:                                                ; preds = %0
  %6 = load i32, ptr @MyBackendType, align 4
  %7 = icmp eq i32 %6, 11
  br i1 %7, label %8, label %20

8:                                                ; preds = %5, %0
  call void @llvm.lifetime.start.p0(i64 96, ptr %1) #9
  br label %9

9:                                                ; preds = %8
  br label %10

10:                                               ; preds = %9
  br label %11

11:                                               ; preds = %10
  store i32 1, ptr %2, align 4
  %12 = load ptr, ptr @TopMemoryContext, align 8
  %13 = call ptr @AllocSetContextCreateInternal(ptr noundef %12, ptr noundef @.str, i64 noundef 0, i64 noundef 8192, i64 noundef 8388608)
  store ptr %13, ptr @pendingOpsCxt, align 8
  %14 = load ptr, ptr @pendingOpsCxt, align 8
  call void @MemoryContextAllowInCriticalSection(ptr noundef %14, i1 noundef zeroext true)
  %15 = getelementptr inbounds nuw %struct.HASHCTL, ptr %1, i32 0, i32 4
  store i64 24, ptr %15, align 8
  %16 = getelementptr inbounds nuw %struct.HASHCTL, ptr %1, i32 0, i32 5
  store i64 32, ptr %16, align 8
  %17 = load ptr, ptr @pendingOpsCxt, align 8
  %18 = getelementptr inbounds nuw %struct.HASHCTL, ptr %1, i32 0, i32 10
  store ptr %17, ptr %18, align 8
  %19 = call ptr @hash_create(ptr noundef @.str.1, i64 noundef 100, ptr noundef %1, i32 noundef 1064)
  store ptr %19, ptr @pendingOps, align 8
  store ptr null, ptr @pendingUnlinks, align 8
  call void @llvm.lifetime.end.p0(i64 96, ptr %1) #9
  br label %20

20:                                               ; preds = %11, %5
  ret void
}