; Function Attrs: nounwind uwtable
define dso_local void @InitSync() local_unnamed_addr #0 {
  %1 = alloca %struct.HASHCTL, align 8
  %2 = load i8, ptr @IsUnderPostmaster, align 1, !range !4, !noundef !5
  %3 = trunc nuw i8 %2 to i1
  %4 = load i32, ptr @MyBackendType, align 4
  %5 = icmp ne i32 %4, 11
  %or.cond.not = select i1 %3, i1 %5, i1 false
  br i1 %or.cond.not, label %14, label %6

6:                                                ; preds = %0
  call void @llvm.lifetime.start.p0(i64 96, ptr nonnull %1) #9
  %7 = load ptr, ptr @TopMemoryContext, align 8
  %8 = tail call ptr @AllocSetContextCreateInternal(ptr noundef %7, ptr noundef nonnull @.str, i64 noundef 0, i64 noundef 8192, i64 noundef 8388608) #9
  store ptr %8, ptr @pendingOpsCxt, align 8
  tail call void @MemoryContextAllowInCriticalSection(ptr noundef %8, i1 noundef zeroext true) #9
  %9 = getelementptr inbounds nuw i8, ptr %1, i64 32
  store i64 24, ptr %9, align 8
  %10 = getelementptr inbounds nuw i8, ptr %1, i64 40
  store i64 32, ptr %10, align 8
  %11 = load ptr, ptr @pendingOpsCxt, align 8
  %12 = getelementptr inbounds nuw i8, ptr %1, i64 80
  store ptr %11, ptr %12, align 8
  %13 = call ptr @hash_create(ptr noundef nonnull @.str.1, i64 noundef 100, ptr noundef nonnull %1, i32 noundef 1064) #9
  store ptr %13, ptr @pendingOps, align 8
  store ptr null, ptr @pendingUnlinks, align 8
  call void @llvm.lifetime.end.p0(i64 96, ptr nonnull %1) #9
  br label %14

14:                                               ; preds = %0, %6
  ret void
}